target datalayout = "e-m:e-p270:32:32-p271:32:32-p272:64:64-i64:64-i128:128-f80:128-n8:16:32:64-S128"
target triple = "x86_64-pc-linux-gnu"

; Function Attrs: inlinehint mustprogress nounwind uwtable
define internal noundef signext i8 @_ZL9U_FAILURE10UErrorCode(i32 noundef %0) #2 {
  %2 = alloca i32, align 4
  store i32 %0, ptr %2, align 4, !tbaa !15
  %3 = load i32, ptr %2, align 4, !tbaa !15
  %4 = icmp sgt i32 %3, 0
  %5 = zext i1 %4 to i8
  ret i8 %5
}

; Function Attrs: mustprogress uwtable
define i32 @paramLocaleDefaultBcp47(ptr noundef %0, ptr noundef %1, i32 noundef %2, ptr noundef %3) #1 {
  %5 = alloca i32, align 4
  %6 = alloca ptr, align 8
  %7 = alloca ptr, align 8
  %8 = alloca i32, align 4
  %9 = alloca ptr, align 8
  %10 = alloca ptr, align 8
  store ptr %0, ptr %6, align 8, !tbaa !35
  store ptr %1, ptr %7, align 8, !tbaa !17
  store i32 %2, ptr %8, align 4, !tbaa !14
  store ptr %3, ptr %9, align 8, !tbaa !22
  %11 = load ptr, ptr %9, align 8, !tbaa !22
  %12 = load i32, ptr %11, align 4, !tbaa !15
  %13 = call noundef signext i8 @_ZL9U_FAILURE10UErrorCode(i32 noundef %12)
  %14 = icmp ne i8 %13, 0
  br i1 %14, label %15, label %16

15:                                               ; preds = %4
  store i32 0, ptr %5, align 4
  br label %23

16:                                               ; preds = %4
  call void @llvm.lifetime.start.p0(i64 8, ptr %10) #13
  %17 = call ptr @uloc_getDefault_77()
  store ptr %17, ptr %10, align 8, !tbaa !17
  %18 = load ptr, ptr %10, align 8, !tbaa !17
  %19 = load ptr, ptr %7, align 8, !tbaa !17
  %20 = load i32, ptr %8, align 4, !tbaa !14
  %21 = load ptr, ptr %9, align 8, !tbaa !22
  %22 = call i32 @uloc_toLanguageTag_77(ptr noundef %18, ptr noundef %19, i32 noundef %20, i8 noundef signext 0, ptr noundef %21)
  store i32 %22, ptr %5, align 4
  call void @llvm.lifetime.end.p0(i64 8, ptr %10) #13
  br label %23

23:                                               ; preds = %16, %15
  %24 = load i32, ptr %5, align 4
  ret i32 %24
}