; Function Attrs: mustprogress uwtable
define i32 @paramLocaleDefaultBcp47(ptr readnone captures(none) %0, ptr noundef %1, i32 noundef %2, ptr noundef %3) #1 {
  %5 = load i32, ptr %3, align 4, !tbaa !13
  %6 = icmp slt i32 %5, 1
  br i1 %6, label %7, label %10

7:                                                ; preds = %4
  %8 = tail call ptr @uloc_getDefault_77()
  %9 = tail call i32 @uloc_toLanguageTag_77(ptr noundef %8, ptr noundef %1, i32 noundef %2, i8 noundef signext 0, ptr noundef nonnull %3)
  br label %10

10:                                               ; preds = %4, %7
  %.0 = phi i32 [ %9, %7 ], [ 0, %4 ]
  ret i32 %.0
}